
bootrom.rom.rv32.elf:     file format elf32-littleriscv


Disassembly of section .start:

00010000 <_start>:
   10000:	f1402573          	csrr	a0,mhartid
   10004:	0a051663          	bnez	a0,100b0 <_dtb>
   10008:	54000537          	lui	a0,0x54000
   1000c:	00000593          	li	a1,0
   10010:	00b52823          	sw	a1,16(a0) # 54000010 <__bss_end+0x53feee90>
   10014:	00100593          	li	a1,1
   10018:	00b52423          	sw	a1,8(a0)
   1001c:	00100593          	li	a1,1
   10020:	00b52623          	sw	a1,12(a0)
   10024:	04200993          	li	s3,66
   10028:	01352023          	sw	s3,0(a0)
   1002c:	0400006f          	j	1006c <start_copy>

00010030 <_copy_flash>:
   10030:	00000597          	auipc	a1,0x0
   10034:	0d058593          	addi	a1,a1,208 # 10100 <coremark>
   10038:	80000637          	lui	a2,0x80000
   1003c:	000106b7          	lui	a3,0x10
   10040:	ffc68693          	addi	a3,a3,-4 # fffc <__STACKSIZE__+0xeffc>

00010044 <_copy_flash_loop>:
   10044:	0005a283          	lw	t0,0(a1)
   10048:	00562023          	sw	t0,0(a2) # 80000000 <__bss_end+0x7ffeee80>
   1004c:	00458593          	addi	a1,a1,4
   10050:	00460613          	addi	a2,a2,4
   10054:	ffc68693          	addi	a3,a3,-4
   10058:	0155f933          	and	s2,a1,s5
   1005c:	01249463          	bne	s1,s2,10064 <skip_dot>
   10060:	013a2023          	sw	s3,0(s4)

00010064 <skip_dot>:
   10064:	fe0690e3          	bnez	a3,10044 <_copy_flash_loop>
   10068:	00008067          	ret

0001006c <start_copy>:
   1006c:	000084b7          	lui	s1,0x8
   10070:	54000a37          	lui	s4,0x54000
   10074:	00010ab7          	lui	s5,0x10
   10078:	fffa8a93          	addi	s5,s5,-1 # ffff <__STACKSIZE__+0xefff>
   1007c:	fb5ff0ef          	jal	ra,10030 <_copy_flash>
   10080:	04400593          	li	a1,68
   10084:	00b52023          	sw	a1,0(a0)
   10088:	00004537          	lui	a0,0x4
   1008c:	00052503          	lw	a0,0(a0) # 4000 <__STACKSIZE__+0x3000>
   10090:	34151073          	csrw	mepc,a0
   10094:	f1402573          	csrr	a0,mhartid
   10098:	00000597          	auipc	a1,0x0
   1009c:	01858593          	addi	a1,a1,24 # 100b0 <_dtb>
   100a0:	08000613          	li	a2,128
   100a4:	30063073          	csrc	mstatus,a2
   100a8:	30200073          	mret
   100ac:	00000013          	nop

000100b0 <_dtb>:
   100b0:	10500073          	wfi
   100b4:	ffdff06f          	j	100b0 <_dtb>
   100b8:	00000013          	nop
   100bc:	00000013          	nop
   100c0:	00000013          	nop
   100c4:	00000013          	nop
   100c8:	00000013          	nop
   100cc:	00000013          	nop
   100d0:	00000013          	nop
   100d4:	00000013          	nop
   100d8:	00000013          	nop
   100dc:	00000013          	nop
   100e0:	00000013          	nop
   100e4:	00000013          	nop
   100e8:	00000013          	nop
   100ec:	00000013          	nop
   100f0:	00000013          	nop
   100f4:	00000013          	nop
   100f8:	00000013          	nop
   100fc:	00000013          	nop

00010100 <coremark>:
	...
