
bootrom.sim.rv32.elf:     file format elf32-littleriscv


Disassembly of section .start:

00010000 <_start>:
   10000:	54000ab7          	lui	s5,0x54000
   10004:	80700337          	lui	t1,0x80700
   10008:	00032023          	sw	zero,0(t1) # 80700000 <__bss_end+0x806eee00>
   1000c:	0000500f          	0x500f
   10010:	f1402573          	csrr	a0,mhartid
   10014:	00050463          	beqz	a0,1001c <_start+0x1c>
   10018:	1a00006f          	j	101b8 <_dtb>
   1001c:	00000593          	li	a1,0
   10020:	00baa823          	sw	a1,16(s5) # 54000010 <__bss_end+0x53feee10>
   10024:	00100593          	li	a1,1
   10028:	00baa423          	sw	a1,8(s5)
   1002c:	00100593          	li	a1,1
   10030:	00baa623          	sw	a1,12(s5)
   10034:	05300593          	li	a1,83
   10038:	05400613          	li	a2,84
   1003c:	04100693          	li	a3,65
   10040:	05200713          	li	a4,82
   10044:	05400793          	li	a5,84
   10048:	00a00813          	li	a6,10
   1004c:	00baa023          	sw	a1,0(s5)
   10050:	00caa023          	sw	a2,0(s5)
   10054:	00daa023          	sw	a3,0(s5)
   10058:	00eaa023          	sw	a4,0(s5)
   1005c:	00faa023          	sw	a5,0(s5)
   10060:	010aa023          	sw	a6,0(s5)
   10064:	0ac0006f          	j	10110 <start_copy>

Disassembly of section .text.hang:

00010080 <_hang>:
   10080:	00000517          	auipc	a0,0x0
   10084:	f8050513          	addi	a0,a0,-128 # 10000 <ROM_BASE>
   10088:	30551073          	csrw	mtvec,a0
   1008c:	301022f3          	csrr	t0,misa
   10090:	4122d293          	srai	t0,t0,0x12
   10094:	0012f293          	andi	t0,t0,1
   10098:	00028463          	beqz	t0,100a0 <_hang+0x20>
   1009c:	30301073          	csrw	mideleg,zero
   100a0:	00800513          	li	a0,8
   100a4:	30451073          	csrw	mie,a0
   100a8:	30052073          	csrs	mstatus,a0
   100ac:	54000ab7          	lui	s5,0x54000
   100b0:	80700337          	lui	t1,0x80700
   100b4:	00032023          	sw	zero,0(t1) # 80700000 <__bss_end+0x806eee00>
   100b8:	0000500f          	0x500f
   100bc:	f1402573          	csrr	a0,mhartid
   100c0:	0e051c63          	bnez	a0,101b8 <_dtb>

000100c4 <wfi_loop>:
   100c4:	10500073          	wfi
   100c8:	ffdff06f          	j	100c4 <wfi_loop>

000100cc <_copy_flash>:
   100cc:	201005b7          	lui	a1,0x20100
   100d0:	80000637          	lui	a2,0x80000
   100d4:	0000a6b7          	lui	a3,0xa
   100d8:	ffc68693          	addi	a3,a3,-4 # 9ffc <__STACKSIZE__+0x8ffc>

000100dc <_copy_flash_loop>:
   100dc:	0005a283          	lw	t0,0(a1) # 20100000 <__bss_end+0x200eee00>
   100e0:	00562023          	sw	t0,0(a2) # 80000000 <__bss_end+0x7ffeee00>
   100e4:	00458593          	addi	a1,a1,4
   100e8:	00460613          	addi	a2,a2,4
   100ec:	ffc68693          	addi	a3,a3,-4
   100f0:	0165f933          	and	s2,a1,s6
   100f4:	01249463          	bne	s1,s2,100fc <skip_dot>
   100f8:	013aa023          	sw	s3,0(s5) # 54000000 <__bss_end+0x53feee00>

000100fc <skip_dot>:
   100fc:	fe0690e3          	bnez	a3,100dc <_copy_flash_loop>
   10100:	80700337          	lui	t1,0x80700
   10104:	00632023          	sw	t1,0(t1) # 80700000 <__bss_end+0x806eee00>
   10108:	0000500f          	0x500f
   1010c:	00008067          	ret

00010110 <start_copy>:
   10110:	000084b7          	lui	s1,0x8
   10114:	02e00993          	li	s3,46
   10118:	00010b37          	lui	s6,0x10
   1011c:	fffb0b13          	addi	s6,s6,-1 # ffff <__STACKSIZE__+0xefff>
   10120:	fadff0ef          	jal	ra,100cc <_copy_flash>

00010124 <copy_done>:
   10124:	f1402573          	csrr	a0,mhartid
   10128:	02051c63          	bnez	a0,10160 <attach>
   1012c:	04300593          	li	a1,67
   10130:	04f00613          	li	a2,79
   10134:	05000693          	li	a3,80
   10138:	05900713          	li	a4,89
   1013c:	02e00793          	li	a5,46
   10140:	00a00813          	li	a6,10
   10144:	00baa023          	sw	a1,0(s5)
   10148:	00caa023          	sw	a2,0(s5)
   1014c:	00daa023          	sw	a3,0(s5)
   10150:	00eaa023          	sw	a4,0(s5)
   10154:	00faa023          	sw	a5,0(s5)
   10158:	010aa023          	sw	a6,0(s5)
   1015c:	0340006f          	j	10190 <attach_done>

00010160 <attach>:
   10160:	04100593          	li	a1,65
   10164:	05400613          	li	a2,84
   10168:	04100693          	li	a3,65
   1016c:	04300713          	li	a4,67
   10170:	04800793          	li	a5,72
   10174:	00a00813          	li	a6,10
   10178:	00baa023          	sw	a1,0(s5)
   1017c:	00caa023          	sw	a2,0(s5)
   10180:	00daa023          	sw	a3,0(s5)
   10184:	00eaa023          	sw	a4,0(s5)
   10188:	00faa023          	sw	a5,0(s5)
   1018c:	010aa023          	sw	a6,0(s5)

00010190 <attach_done>:
   10190:	00004537          	lui	a0,0x4
   10194:	00052503          	lw	a0,0(a0) # 4000 <__STACKSIZE__+0x3000>
   10198:	34151073          	csrw	mepc,a0
   1019c:	f1402573          	csrr	a0,mhartid
   101a0:	00000597          	auipc	a1,0x0
   101a4:	01858593          	addi	a1,a1,24 # 101b8 <_dtb>
   101a8:	08000613          	li	a2,128
   101ac:	30063073          	csrc	mstatus,a2
   101b0:	30200073          	mret
   101b4:	00000013          	nop

000101b8 <_dtb>:
   101b8:	03f00393          	li	t2,63

000101bc <pack_loop>:
   101bc:	fff38393          	addi	t2,t2,-1
   101c0:	fe039ee3          	bnez	t2,101bc <pack_loop>
   101c4:	80700337          	lui	t1,0x80700
   101c8:	0000500f          	0x500f
   101cc:	00032283          	lw	t0,0(t1) # 80700000 <__bss_end+0x806eee00>
   101d0:	fe0284e3          	beqz	t0,101b8 <_dtb>
   101d4:	f51ff06f          	j	10124 <copy_done>
